target datalayout = "e-m:e-p270:32:32-p271:32:32-p272:64:64-i64:64-i128:128-f80:128-n8:16:32:64-S128"
target triple = "x86_64-pc-linux-gnu"

%struct.safe_directory_data = type { ptr, i32 }

@.str.1 = private unnamed_addr constant [1 x i8] zeroinitializer, align 1
@.str.21 = private unnamed_addr constant [2 x i8] c".\00", align 1
@git_gettext_enabled = external global i32, align 4
@.str.116 = private unnamed_addr constant [15 x i8] c"safe.directory\00", align 1
@.str.117 = private unnamed_addr constant [2 x i8] c"*\00", align 1
@.str.118 = private unnamed_addr constant [33 x i8] c"safe.directory '%s' not absolute\00", align 1
@.str.119 = private unnamed_addr constant [3 x i8] c"/*\00", align 1

; Function Attrs: inlinehint nounwind uwtable
define internal i32 @git_has_dos_drive_prefix(ptr noundef %0) #2 {
  %2 = alloca ptr, align 8
  store ptr %0, ptr %2, align 8, !tbaa !4
  ret i32 0
}

; Function Attrs: inlinehint nounwind uwtable
define internal i32 @git_is_dir_sep(i32 noundef %0) #2 {
  %2 = alloca i32, align 4
  store i32 %0, ptr %2, align 4, !tbaa !9
  %3 = load i32, ptr %2, align 4, !tbaa !9
  %4 = icmp eq i32 %3, 47
  %5 = zext i1 %4 to i32
  ret i32 %5
}

; Function Attrs: inlinehint nounwind uwtable
define internal ptr @_(ptr noundef %0) #2 {
  %2 = alloca ptr, align 8
  %3 = alloca ptr, align 8
  store ptr %0, ptr %3, align 8, !tbaa !4
  %4 = load ptr, ptr %3, align 8, !tbaa !4
  %5 = load i8, ptr %4, align 1, !tbaa !13
  %6 = icmp ne i8 %5, 0
  br i1 %6, label %8, label %7

7:                                                ; preds = %1
  store ptr @.str.1, ptr %2, align 8
  br label %16

8:                                                ; preds = %1
  %9 = load i32, ptr @git_gettext_enabled, align 4, !tbaa !9
  %10 = icmp ne i32 %9, 0
  br i1 %10, label %13, label %11

11:                                               ; preds = %8
  %12 = load ptr, ptr %3, align 8, !tbaa !4
  store ptr %12, ptr %2, align 8
  br label %16

13:                                               ; preds = %8
  %14 = load ptr, ptr %3, align 8, !tbaa !4
  %15 = call ptr @dcgettext(ptr noundef null, ptr noundef %14, i32 noundef 5) #13
  store ptr %15, ptr %2, align 8
  br label %16

16:                                               ; preds = %13, %11, %7
  %17 = load ptr, ptr %2, align 8
  ret ptr %17
}

; Function Attrs: inlinehint nounwind uwtable
define internal i32 @is_absolute_path(ptr noundef %0) #2 {
  %2 = alloca ptr, align 8
  store ptr %0, ptr %2, align 8, !tbaa !4
  %3 = load ptr, ptr %2, align 8, !tbaa !4
  %4 = getelementptr inbounds i8, ptr %3, i64 0
  %5 = load i8, ptr %4, align 1, !tbaa !13
  %6 = sext i8 %5 to i32
  %7 = call i32 @git_is_dir_sep(i32 noundef %6)
  %8 = icmp ne i32 %7, 0
  br i1 %8, label %13, label %9

9:                                                ; preds = %1
  %10 = load ptr, ptr %2, align 8, !tbaa !4
  %11 = call i32 @git_has_dos_drive_prefix(ptr noundef %10)
  %12 = icmp ne i32 %11, 0
  br label %13

13:                                               ; preds = %9, %1
  %14 = phi i1 [ true, %1 ], [ %12, %9 ]
  %15 = zext i1 %14 to i32
  ret i32 %15
}

; Function Attrs: nounwind uwtable
define internal i32 @safe_directory_cb(ptr noundef %0, ptr noundef %1, ptr noundef %2, ptr noundef %3) #0 {
  %5 = alloca i32, align 4
  %6 = alloca ptr, align 8
  %7 = alloca ptr, align 8
  %8 = alloca ptr, align 8
  %9 = alloca ptr, align 8
  %10 = alloca ptr, align 8
  %11 = alloca i32, align 4
  %12 = alloca ptr, align 8
  %13 = alloca ptr, align 8
  %14 = alloca i64, align 8
  store ptr %0, ptr %6, align 8, !tbaa !4
  store ptr %1, ptr %7, align 8, !tbaa !4
  store ptr %2, ptr %8, align 8, !tbaa !53
  store ptr %3, ptr %9, align 8, !tbaa !55
  call void @llvm.lifetime.start.p0(i64 8, ptr %10) #13
  %15 = load ptr, ptr %9, align 8, !tbaa !55
  store ptr %15, ptr %10, align 8, !tbaa !122
  %16 = load ptr, ptr %6, align 8, !tbaa !4
  %17 = call i32 @strcmp(ptr noundef %16, ptr noundef @.str.116) #14
  %18 = icmp ne i32 %17, 0
  br i1 %18, label %19, label %20

19:                                               ; preds = %4
  store i32 0, ptr %5, align 4
  store i32 1, ptr %11, align 4
  br label %96

20:                                               ; preds = %4
  %21 = load ptr, ptr %7, align 8, !tbaa !4
  %22 = icmp ne ptr %21, null
  br i1 %22, label %23, label %27

23:                                               ; preds = %20
  %24 = load ptr, ptr %7, align 8, !tbaa !4
  %25 = load i8, ptr %24, align 1, !tbaa !13
  %26 = icmp ne i8 %25, 0
  br i1 %26, label %30, label %27

27:                                               ; preds = %23, %20
  %28 = load ptr, ptr %10, align 8, !tbaa !122
  %29 = getelementptr inbounds nuw %struct.safe_directory_data, ptr %28, i32 0, i32 1
  store i32 0, ptr %29, align 8, !tbaa !61
  br label %95

30:                                               ; preds = %23
  %31 = load ptr, ptr %7, align 8, !tbaa !4
  %32 = call i32 @strcmp(ptr noundef %31, ptr noundef @.str.117) #14
  %33 = icmp ne i32 %32, 0
  br i1 %33, label %37, label %34

34:                                               ; preds = %30
  %35 = load ptr, ptr %10, align 8, !tbaa !122
  %36 = getelementptr inbounds nuw %struct.safe_directory_data, ptr %35, i32 0, i32 1
  store i32 1, ptr %36, align 8, !tbaa !61
  br label %94

37:                                               ; preds = %30
  call void @llvm.lifetime.start.p0(i64 8, ptr %12) #13
  store ptr null, ptr %12, align 8, !tbaa !4
  %38 = load ptr, ptr %6, align 8, !tbaa !4
  %39 = load ptr, ptr %7, align 8, !tbaa !4
  %40 = call i32 @git_config_pathname(ptr noundef %12, ptr noundef %38, ptr noundef %39)
  %41 = icmp ne i32 %40, 0
  br i1 %41, label %93, label %42

42:                                               ; preds = %37
  call void @llvm.lifetime.start.p0(i64 8, ptr %13) #13
  store ptr null, ptr %13, align 8, !tbaa !4
  %43 = load ptr, ptr %12, align 8, !tbaa !4
  %44 = call i32 @is_absolute_path(ptr noundef %43)
  %45 = icmp ne i32 %44, 0
  br i1 %45, label %53, label %46

46:                                               ; preds = %42
  %47 = load ptr, ptr %12, align 8, !tbaa !4
  %48 = call i32 @strcmp(ptr noundef %47, ptr noundef @.str.21) #14
  %49 = icmp ne i32 %48, 0
  br i1 %49, label %50, label %53

50:                                               ; preds = %46
  %51 = call ptr @_(ptr noundef @.str.118)
  %52 = load ptr, ptr %12, align 8, !tbaa !4
  call void (ptr, ...) @warning(ptr noundef %51, ptr noundef %52)
  br label %90

53:                                               ; preds = %46, %42
  %54 = load ptr, ptr %12, align 8, !tbaa !4
  %55 = call ptr @real_pathdup(ptr noundef %54, i32 noundef 0)
  store ptr %55, ptr %13, align 8, !tbaa !4
  %56 = load ptr, ptr %13, align 8, !tbaa !4
  %57 = icmp ne ptr %56, null
  br i1 %57, label %59, label %58

58:                                               ; preds = %53
  br label %90

59:                                               ; preds = %53
  %60 = load ptr, ptr %13, align 8, !tbaa !4
  %61 = call i32 @ends_with(ptr noundef %60, ptr noundef @.str.119)
  %62 = icmp ne i32 %61, 0
  br i1 %62, label %63, label %78

63:                                               ; preds = %59
  call void @llvm.lifetime.start.p0(i64 8, ptr %14) #13
  %64 = load ptr, ptr %13, align 8, !tbaa !4
  %65 = call i64 @strlen(ptr noundef %64) #14
  store i64 %65, ptr %14, align 8, !tbaa !16
  %66 = load ptr, ptr %13, align 8, !tbaa !4
  %67 = load ptr, ptr %10, align 8, !tbaa !122
  %68 = getelementptr inbounds nuw %struct.safe_directory_data, ptr %67, i32 0, i32 0
  %69 = load ptr, ptr %68, align 8, !tbaa !59
  %70 = load i64, ptr %14, align 8, !tbaa !16
  %71 = sub i64 %70, 1
  %72 = call i32 @git_fspathncmp(ptr noundef %66, ptr noundef %69, i64 noundef %71)
  %73 = icmp ne i32 %72, 0
  br i1 %73, label %77, label %74

74:                                               ; preds = %63
  %75 = load ptr, ptr %10, align 8, !tbaa !122
  %76 = getelementptr inbounds nuw %struct.safe_directory_data, ptr %75, i32 0, i32 1
  store i32 1, ptr %76, align 8, !tbaa !61
  br label %77

77:                                               ; preds = %74, %63
  call void @llvm.lifetime.end.p0(i64 8, ptr %14) #13
  br label %89

78:                                               ; preds = %59
  %79 = load ptr, ptr %10, align 8, !tbaa !122
  %80 = getelementptr inbounds nuw %struct.safe_directory_data, ptr %79, i32 0, i32 0
  %81 = load ptr, ptr %80, align 8, !tbaa !59
  %82 = load ptr, ptr %13, align 8, !tbaa !4
  %83 = call i32 @git_fspathcmp(ptr noundef %81, ptr noundef %82)
  %84 = icmp ne i32 %83, 0
  br i1 %84, label %88, label %85

85:                                               ; preds = %78
  %86 = load ptr, ptr %10, align 8, !tbaa !122
  %87 = getelementptr inbounds nuw %struct.safe_directory_data, ptr %86, i32 0, i32 1
  store i32 1, ptr %87, align 8, !tbaa !61
  br label %88

88:                                               ; preds = %85, %78
  br label %89

89:                                               ; preds = %88, %77
  br label %90

90:                                               ; preds = %89, %58, %50
  %91 = load ptr, ptr %13, align 8, !tbaa !4
  call void @free(ptr noundef %91) #13
  %92 = load ptr, ptr %12, align 8, !tbaa !4
  call void @free(ptr noundef %92) #13
  call void @llvm.lifetime.end.p0(i64 8, ptr %13) #13
  br label %93

93:                                               ; preds = %90, %37
  call void @llvm.lifetime.end.p0(i64 8, ptr %12) #13
  br label %94

94:                                               ; preds = %93, %34
  br label %95

95:                                               ; preds = %94, %27
  store i32 0, ptr %5, align 4
  store i32 1, ptr %11, align 4
  br label %96

96:                                               ; preds = %95, %19
  call void @llvm.lifetime.end.p0(i64 8, ptr %10) #13
  %97 = load i32, ptr %5, align 4
  ret i32 %97
}