; Function Attrs: nounwind uwtable
define internal noundef i32 @safe_directory_cb(ptr noundef %0, ptr noundef %1, ptr readnone captures(none) %2, ptr noundef captures(none) %3) #0 {
  %5 = alloca ptr, align 8
  %6 = tail call i32 @strcmp(ptr noundef nonnull dereferenceable(1) %0, ptr noundef nonnull dereferenceable(15) @.str.116) #24
  %.not = icmp eq i32 %6, 0
  br i1 %.not, label %7, label %46

7:                                                ; preds = %4
  %.not22 = icmp eq ptr %1, null
  br i1 %.not22, label %10, label %8

8:                                                ; preds = %7
  %9 = load i8, ptr %1, align 1, !tbaa !4
  switch i8 %9, label %.tail.thread [
    i8 0, label %10
    i8 42, label %.tail
  ]

10:                                               ; preds = %8, %7
  %11 = getelementptr inbounds nuw i8, ptr %3, i64 8
  store i32 0, ptr %11, align 8, !tbaa !61
  br label %46

.tail:                                            ; preds = %8
  %12 = getelementptr inbounds nuw i8, ptr %1, i64 1
  %13 = load i8, ptr %12, align 1
  %14 = icmp eq i8 %13, 0
  br i1 %14, label %15, label %.tail.thread

15:                                               ; preds = %.tail
  %16 = getelementptr inbounds nuw i8, ptr %3, i64 8
  store i32 1, ptr %16, align 8, !tbaa !61
  br label %46

.tail.thread:                                     ; preds = %8, %.tail
  call void @llvm.lifetime.start.p0(i64 8, ptr nonnull %5) #25
  store ptr null, ptr %5, align 8, !tbaa !58
  %17 = call i32 @git_config_pathname(ptr noundef nonnull %5, ptr noundef nonnull %0, ptr noundef nonnull %1) #25
  %.not25 = icmp eq i32 %17, 0
  br i1 %.not25, label %18, label %45

18:                                               ; preds = %.tail.thread
  %19 = load ptr, ptr %5, align 8, !tbaa !58
  %.val = load i8, ptr %19, align 1, !tbaa !4
  switch i8 %.val, label %.tail33.thread [
    i8 47, label %27
    i8 46, label %.tail33
  ]

.tail33:                                          ; preds = %18
  %20 = getelementptr inbounds nuw i8, ptr %19, i64 1
  %21 = load i8, ptr %20, align 1
  %22 = icmp eq i8 %21, 0
  br i1 %22, label %27, label %.tail33.thread

.tail33.thread:                                   ; preds = %18, %.tail33
  %23 = load i32, ptr @git_gettext_enabled, align 4, !tbaa !7
  %.not4.i = icmp eq i32 %23, 0
  br i1 %.not4.i, label %_.exit, label %24

24:                                               ; preds = %.tail33.thread
  %25 = call ptr @dcgettext(ptr noundef null, ptr noundef nonnull @.str.118, i32 noundef 5) #25
  %.pre = load ptr, ptr %5, align 8, !tbaa !58
  br label %_.exit

_.exit:                                           ; preds = %.tail33.thread, %24
  %26 = phi ptr [ %.pre, %24 ], [ %19, %.tail33.thread ]
  %.0.i = phi ptr [ %25, %24 ], [ @.str.118, %.tail33.thread ]
  call void (ptr, ...) @warning(ptr noundef %.0.i, ptr noundef %26) #25
  br label %43

27:                                               ; preds = %18, %.tail33
  %28 = call ptr @real_pathdup(ptr noundef nonnull %19, i32 noundef 0) #25
  %.not28 = icmp eq ptr %28, null
  br i1 %.not28, label %43, label %29

29:                                               ; preds = %27
  %30 = call fastcc i32 @ends_with(ptr noundef %28)
  %.not29 = icmp eq i32 %30, 0
  br i1 %.not29, label %38, label %31

31:                                               ; preds = %29
  %32 = call i64 @strlen(ptr noundef nonnull dereferenceable(1) %28) #24
  %33 = load ptr, ptr %3, align 8, !tbaa !59
  %34 = add i64 %32, -1
  %35 = call i32 @git_fspathncmp(ptr noundef nonnull %28, ptr noundef %33, i64 noundef %34) #25
  %.not31 = icmp eq i32 %35, 0
  br i1 %.not31, label %36, label %43

36:                                               ; preds = %31
  %37 = getelementptr inbounds nuw i8, ptr %3, i64 8
  store i32 1, ptr %37, align 8, !tbaa !61
  br label %43

38:                                               ; preds = %29
  %39 = load ptr, ptr %3, align 8, !tbaa !59
  %40 = call i32 @git_fspathcmp(ptr noundef %39, ptr noundef nonnull %28) #25
  %.not30 = icmp eq i32 %40, 0
  br i1 %.not30, label %41, label %43

41:                                               ; preds = %38
  %42 = getelementptr inbounds nuw i8, ptr %3, i64 8
  store i32 1, ptr %42, align 8, !tbaa !61
  br label %43

43:                                               ; preds = %31, %36, %41, %38, %27, %_.exit
  %.020 = phi ptr [ %28, %38 ], [ %28, %41 ], [ null, %27 ], [ null, %_.exit ], [ %28, %36 ], [ %28, %31 ]
  call void @free(ptr noundef %.020) #25
  %44 = load ptr, ptr %5, align 8, !tbaa !58
  call void @free(ptr noundef %44) #25
  br label %45

45:                                               ; preds = %43, %.tail.thread
  call void @llvm.lifetime.end.p0(i64 8, ptr nonnull %5) #25
  br label %46

46:                                               ; preds = %10, %45, %15, %4
  ret i32 0
}